; Function Attrs: mustprogress uwtable
define hidden noundef nonnull ptr @_ZNK3ue218UTF8ComponentClass5cloneEv(ptr noundef nonnull align 8 dereferenceable(208) %this) unnamed_addr #1 align 2 personality ptr @__gxx_personality_v0 {
entry:
  %call = tail call noalias noundef nonnull dereferenceable(208) ptr @_Znwm(i64 noundef 208) #22
  invoke void @_ZN3ue218UTF8ComponentClassC2ERKS0_(ptr noundef nonnull align 8 dereferenceable(208) %call, ptr noundef nonnull align 8 dereferenceable(208) %this)
          to label %invoke.cont unwind label %lpad

invoke.cont:                                      ; preds = %entry
  ret ptr %call

lpad:                                             ; preds = %entry
  %0 = landingpad { ptr, i32 }
          cleanup
  tail call void @_ZdlPv(ptr noundef nonnull %call) #23
  resume { ptr, i32 } %0
}